target datalayout = "e-m:e-p270:32:32-p271:32:32-p272:64:64-i64:64-i128:128-f80:128-n8:16:32:64-S128"
target triple = "x86_64-pc-linux-gnu"

%struct.cipherlist_test_fixture = type { ptr, ptr, ptr }

@.str.4 = private unnamed_addr constant [34 x i8] c"../openssl/test/cipherlist_test.c\00", align 1
@.str.5 = private unnamed_addr constant [43 x i8] c"fixture = OPENSSL_zalloc(sizeof(*fixture))\00", align 1
@.str.6 = private unnamed_addr constant [51 x i8] c"fixture->server = SSL_CTX_new(TLS_server_method())\00", align 1
@.str.7 = private unnamed_addr constant [51 x i8] c"fixture->client = SSL_CTX_new(TLS_client_method())\00", align 1

; Function Attrs: nounwind uwtable
define internal void @tear_down(ptr noundef %0) #0 {
  %2 = alloca ptr, align 8
  store ptr %0, ptr %2, align 8, !tbaa !4
  %3 = load ptr, ptr %2, align 8, !tbaa !4
  %4 = icmp ne ptr %3, null
  br i1 %4, label %5, label %17

5:                                                ; preds = %1
  %6 = load ptr, ptr %2, align 8, !tbaa !4
  %7 = getelementptr inbounds nuw %struct.cipherlist_test_fixture, ptr %6, i32 0, i32 1
  %8 = load ptr, ptr %7, align 8, !tbaa !11
  call void @SSL_CTX_free(ptr noundef %8)
  %9 = load ptr, ptr %2, align 8, !tbaa !4
  %10 = getelementptr inbounds nuw %struct.cipherlist_test_fixture, ptr %9, i32 0, i32 2
  %11 = load ptr, ptr %10, align 8, !tbaa !15
  call void @SSL_CTX_free(ptr noundef %11)
  %12 = load ptr, ptr %2, align 8, !tbaa !4
  %13 = getelementptr inbounds nuw %struct.cipherlist_test_fixture, ptr %12, i32 0, i32 2
  store ptr null, ptr %13, align 8, !tbaa !15
  %14 = load ptr, ptr %2, align 8, !tbaa !4
  %15 = getelementptr inbounds nuw %struct.cipherlist_test_fixture, ptr %14, i32 0, i32 1
  store ptr null, ptr %15, align 8, !tbaa !11
  %16 = load ptr, ptr %2, align 8, !tbaa !4
  call void @CRYPTO_free(ptr noundef %16, ptr noundef @.str.4, i32 noundef 37)
  br label %17

17:                                               ; preds = %5, %1
  ret void
}

; Function Attrs: nounwind uwtable
define internal ptr @set_up(ptr noundef %0) #0 {
  %2 = alloca ptr, align 8
  %3 = alloca ptr, align 8
  %4 = alloca ptr, align 8
  %5 = alloca i32, align 4
  store ptr %0, ptr %3, align 8, !tbaa !18
  call void @llvm.lifetime.start.p0(i64 8, ptr %4) #4
  %6 = call noalias ptr @CRYPTO_zalloc(i64 noundef 24, ptr noundef @.str.4, i32 noundef 45)
  store ptr %6, ptr %4, align 8, !tbaa !4
  %7 = call i32 @test_ptr(ptr noundef @.str.4, i32 noundef 45, ptr noundef @.str.5, ptr noundef %6)
  %8 = icmp ne i32 %7, 0
  br i1 %8, label %10, label %9

9:                                                ; preds = %1
  store ptr null, ptr %2, align 8
  store i32 1, ptr %5, align 4
  br label %31

10:                                               ; preds = %1
  %11 = load ptr, ptr %3, align 8, !tbaa !18
  %12 = load ptr, ptr %4, align 8, !tbaa !4
  %13 = getelementptr inbounds nuw %struct.cipherlist_test_fixture, ptr %12, i32 0, i32 0
  store ptr %11, ptr %13, align 8, !tbaa !19
  %14 = call ptr @TLS_server_method()
  %15 = call ptr @SSL_CTX_new(ptr noundef %14)
  %16 = load ptr, ptr %4, align 8, !tbaa !4
  %17 = getelementptr inbounds nuw %struct.cipherlist_test_fixture, ptr %16, i32 0, i32 1
  store ptr %15, ptr %17, align 8, !tbaa !11
  %18 = call i32 @test_ptr(ptr noundef @.str.4, i32 noundef 48, ptr noundef @.str.6, ptr noundef %15)
  %19 = icmp ne i32 %18, 0
  br i1 %19, label %20, label %27

20:                                               ; preds = %10
  %21 = call ptr @TLS_client_method()
  %22 = call ptr @SSL_CTX_new(ptr noundef %21)
  %23 = load ptr, ptr %4, align 8, !tbaa !4
  %24 = getelementptr inbounds nuw %struct.cipherlist_test_fixture, ptr %23, i32 0, i32 2
  store ptr %22, ptr %24, align 8, !tbaa !15
  %25 = call i32 @test_ptr(ptr noundef @.str.4, i32 noundef 49, ptr noundef @.str.7, ptr noundef %22)
  %26 = icmp ne i32 %25, 0
  br i1 %26, label %29, label %27

27:                                               ; preds = %20, %10
  %28 = load ptr, ptr %4, align 8, !tbaa !4
  call void @tear_down(ptr noundef %28)
  store ptr null, ptr %2, align 8
  store i32 1, ptr %5, align 4
  br label %31

29:                                               ; preds = %20
  %30 = load ptr, ptr %4, align 8, !tbaa !4
  store ptr %30, ptr %2, align 8
  store i32 1, ptr %5, align 4
  br label %31

31:                                               ; preds = %29, %27, %9
  call void @llvm.lifetime.end.p0(i64 8, ptr %4) #4
  %32 = load ptr, ptr %2, align 8
  ret ptr %32
}