; Function Attrs: nounwind uwtable
define internal fastcc noundef ptr @set_up(ptr noundef %0) unnamed_addr #0 {
  %2 = tail call noalias ptr @CRYPTO_zalloc(i64 noundef 24, ptr noundef nonnull @.str.4, i32 noundef 45) #3
  %3 = tail call i32 @test_ptr(ptr noundef nonnull @.str.4, i32 noundef 45, ptr noundef nonnull @.str.5, ptr noundef %2) #3
  %.not = icmp eq i32 %3, 0
  br i1 %.not, label %17, label %4

4:                                                ; preds = %1
  store ptr %0, ptr %2, align 8, !tbaa !12
  %5 = tail call ptr @TLS_server_method() #3
  %6 = tail call ptr @SSL_CTX_new(ptr noundef %5) #3
  %7 = getelementptr inbounds nuw i8, ptr %2, i64 8
  store ptr %6, ptr %7, align 8, !tbaa !4
  %8 = tail call i32 @test_ptr(ptr noundef nonnull @.str.4, i32 noundef 48, ptr noundef nonnull @.str.6, ptr noundef %6) #3
  %.not7 = icmp eq i32 %8, 0
  br i1 %.not7, label %tear_down.exit, label %9

9:                                                ; preds = %4
  %10 = tail call ptr @TLS_client_method() #3
  %11 = tail call ptr @SSL_CTX_new(ptr noundef %10) #3
  %12 = getelementptr inbounds nuw i8, ptr %2, i64 16
  store ptr %11, ptr %12, align 8, !tbaa !11
  %13 = tail call i32 @test_ptr(ptr noundef nonnull @.str.4, i32 noundef 49, ptr noundef nonnull @.str.7, ptr noundef %11) #3
  %.not8 = icmp eq i32 %13, 0
  br i1 %.not8, label %tear_down.exit, label %17

tear_down.exit:                                   ; preds = %9, %4
  %14 = load ptr, ptr %7, align 8, !tbaa !4
  tail call void @SSL_CTX_free(ptr noundef %14) #3
  %15 = getelementptr inbounds nuw i8, ptr %2, i64 16
  %16 = load ptr, ptr %15, align 8, !tbaa !11
  tail call void @SSL_CTX_free(ptr noundef %16) #3
  tail call void @llvm.memset.p0.i64(ptr noundef nonnull align 8 dereferenceable(16) %7, i8 0, i64 16, i1 false)
  tail call void @CRYPTO_free(ptr noundef nonnull %2, ptr noundef nonnull @.str.4, i32 noundef 37) #3
  br label %17

17:                                               ; preds = %9, %1, %tear_down.exit
  %.0 = phi ptr [ null, %tear_down.exit ], [ null, %1 ], [ %2, %9 ]
  ret ptr %.0
}